target datalayout = "e-m:e-p270:32:32-p271:32:32-p272:64:64-i64:64-i128:128-f80:128-n8:16:32:64-S128"
target triple = "x86_64-unknown-linux-gnu"

%"class.base::BasicStringPiece" = type { ptr, i64 }

; Function Attrs: mustprogress uwtable
define dso_local noundef zeroext i1 @_ZN3url8DomainIsEN4base16BasicStringPieceINSt7__cxx1112basic_stringIcSt11char_traitsIcESaIcEEEEES8_(ptr %canonicalized_host.coerce0, i64 %canonicalized_host.coerce1, ptr %lower_ascii_domain.coerce0, i64 %lower_ascii_domain.coerce1) #0 {
entry:
  %retval = alloca i1, align 1
  %canonicalized_host = alloca %"class.base::BasicStringPiece", align 8
  %lower_ascii_domain = alloca %"class.base::BasicStringPiece", align 8
  %host_len = alloca i64, align 8
  %host_first_pos = alloca ptr, align 8
  %agg.tmp = alloca %"class.base::BasicStringPiece", align 8
  %agg.tmp17 = alloca %"class.base::BasicStringPiece", align 8
  %0 = getelementptr inbounds { ptr, i64 }, ptr %canonicalized_host, i32 0, i32 0
  store ptr %canonicalized_host.coerce0, ptr %0, align 8
  %1 = getelementptr inbounds { ptr, i64 }, ptr %canonicalized_host, i32 0, i32 1
  store i64 %canonicalized_host.coerce1, ptr %1, align 8
  %2 = getelementptr inbounds { ptr, i64 }, ptr %lower_ascii_domain, i32 0, i32 0
  store ptr %lower_ascii_domain.coerce0, ptr %2, align 8
  %3 = getelementptr inbounds { ptr, i64 }, ptr %lower_ascii_domain, i32 0, i32 1
  store i64 %lower_ascii_domain.coerce1, ptr %3, align 8
  %call = call noundef zeroext i1 @_ZNK4base16BasicStringPieceINSt7__cxx1112basic_stringIcSt11char_traitsIcESaIcEEEE5emptyEv(ptr noundef nonnull align 8 dereferenceable(16) %canonicalized_host)
  br i1 %call, label %if.then, label %lor.lhs.false

lor.lhs.false:                                    ; preds = %entry
  %call1 = call noundef zeroext i1 @_ZNK4base16BasicStringPieceINSt7__cxx1112basic_stringIcSt11char_traitsIcESaIcEEEE5emptyEv(ptr noundef nonnull align 8 dereferenceable(16) %lower_ascii_domain)
  br i1 %call1, label %if.then, label %if.end

if.then:                                          ; preds = %lor.lhs.false, %entry
  store i1 false, ptr %retval, align 1
  br label %return

if.end:                                           ; preds = %lor.lhs.false
  %call2 = call noundef i64 @_ZNK4base16BasicStringPieceINSt7__cxx1112basic_stringIcSt11char_traitsIcESaIcEEEE6lengthEv(ptr noundef nonnull align 8 dereferenceable(16) %canonicalized_host)
  store i64 %call2, ptr %host_len, align 8
  %call3 = call noundef signext i8 @_ZNK4base16BasicStringPieceINSt7__cxx1112basic_stringIcSt11char_traitsIcESaIcEEEE4backEv(ptr noundef nonnull align 8 dereferenceable(16) %canonicalized_host)
  %conv = sext i8 %call3 to i32
  %cmp = icmp eq i32 %conv, 46
  br i1 %cmp, label %land.lhs.true, label %if.end8

land.lhs.true:                                    ; preds = %if.end
  %call4 = call noundef signext i8 @_ZNK4base16BasicStringPieceINSt7__cxx1112basic_stringIcSt11char_traitsIcESaIcEEEE4backEv(ptr noundef nonnull align 8 dereferenceable(16) %lower_ascii_domain)
  %conv5 = sext i8 %call4 to i32
  %cmp6 = icmp ne i32 %conv5, 46
  br i1 %cmp6, label %if.then7, label %if.end8

if.then7:                                         ; preds = %land.lhs.true
  %4 = load i64, ptr %host_len, align 8
  %dec = add i64 %4, -1
  store i64 %dec, ptr %host_len, align 8
  br label %if.end8

if.end8:                                          ; preds = %if.then7, %land.lhs.true, %if.end
  %5 = load i64, ptr %host_len, align 8
  %call9 = call noundef i64 @_ZNK4base16BasicStringPieceINSt7__cxx1112basic_stringIcSt11char_traitsIcESaIcEEEE6lengthEv(ptr noundef nonnull align 8 dereferenceable(16) %lower_ascii_domain)
  %cmp10 = icmp ult i64 %5, %call9
  br i1 %cmp10, label %if.then11, label %if.end12

if.then11:                                        ; preds = %if.end8
  store i1 false, ptr %retval, align 1
  br label %return

if.end12:                                         ; preds = %if.end8
  %call13 = call noundef ptr @_ZNK4base16BasicStringPieceINSt7__cxx1112basic_stringIcSt11char_traitsIcESaIcEEEE4dataEv(ptr noundef nonnull align 8 dereferenceable(16) %canonicalized_host)
  %6 = load i64, ptr %host_len, align 8
  %add.ptr = getelementptr inbounds i8, ptr %call13, i64 %6
  %call14 = call noundef i64 @_ZNK4base16BasicStringPieceINSt7__cxx1112basic_stringIcSt11char_traitsIcESaIcEEEE6lengthEv(ptr noundef nonnull align 8 dereferenceable(16) %lower_ascii_domain)
  %idx.neg = sub i64 0, %call14
  %add.ptr15 = getelementptr inbounds i8, ptr %add.ptr, i64 %idx.neg
  store ptr %add.ptr15, ptr %host_first_pos, align 8
  %7 = load ptr, ptr %host_first_pos, align 8
  %call16 = call noundef i64 @_ZNK4base16BasicStringPieceINSt7__cxx1112basic_stringIcSt11char_traitsIcESaIcEEEE6lengthEv(ptr noundef nonnull align 8 dereferenceable(16) %lower_ascii_domain)
  call void @_ZN4base16BasicStringPieceINSt7__cxx1112basic_stringIcSt11char_traitsIcESaIcEEEEC1EPKcm(ptr noundef nonnull align 8 dereferenceable(16) %agg.tmp, ptr noundef %7, i64 noundef %call16)
  call void @llvm.memcpy.p0.p0.i64(ptr align 8 %agg.tmp17, ptr align 8 %lower_ascii_domain, i64 16, i1 false)
  %8 = getelementptr inbounds { ptr, i64 }, ptr %agg.tmp, i32 0, i32 0
  %9 = load ptr, ptr %8, align 8
  %10 = getelementptr inbounds { ptr, i64 }, ptr %agg.tmp, i32 0, i32 1
  %11 = load i64, ptr %10, align 8
  %12 = getelementptr inbounds { ptr, i64 }, ptr %agg.tmp17, i32 0, i32 0
  %13 = load ptr, ptr %12, align 8
  %14 = getelementptr inbounds { ptr, i64 }, ptr %agg.tmp17, i32 0, i32 1
  %15 = load i64, ptr %14, align 8
  %call18 = call noundef zeroext i1 @_ZN4base20LowerCaseEqualsASCIIENS_16BasicStringPieceINSt7__cxx1112basic_stringIcSt11char_traitsIcESaIcEEEEES7_(ptr %9, i64 %11, ptr %13, i64 %15)
  br i1 %call18, label %if.end20, label %if.then19

if.then19:                                        ; preds = %if.end12
  store i1 false, ptr %retval, align 1
  br label %return

if.end20:                                         ; preds = %if.end12
  %call21 = call noundef signext i8 @_ZNK4base16BasicStringPieceINSt7__cxx1112basic_stringIcSt11char_traitsIcESaIcEEEEixEm(ptr noundef nonnull align 8 dereferenceable(16) %lower_ascii_domain, i64 noundef 0)
  %conv22 = sext i8 %call21 to i32
  %cmp23 = icmp ne i32 %conv22, 46
  br i1 %cmp23, label %land.lhs.true24, label %if.end32

land.lhs.true24:                                  ; preds = %if.end20
  %16 = load i64, ptr %host_len, align 8
  %call25 = call noundef i64 @_ZNK4base16BasicStringPieceINSt7__cxx1112basic_stringIcSt11char_traitsIcESaIcEEEE6lengthEv(ptr noundef nonnull align 8 dereferenceable(16) %lower_ascii_domain)
  %cmp26 = icmp ugt i64 %16, %call25
  br i1 %cmp26, label %land.lhs.true27, label %if.end32

land.lhs.true27:                                  ; preds = %land.lhs.true24
  %17 = load ptr, ptr %host_first_pos, align 8
  %add.ptr28 = getelementptr inbounds i8, ptr %17, i64 -1
  %18 = load i8, ptr %add.ptr28, align 1
  %conv29 = sext i8 %18 to i32
  %cmp30 = icmp ne i32 %conv29, 46
  br i1 %cmp30, label %if.then31, label %if.end32

if.then31:                                        ; preds = %land.lhs.true27
  store i1 false, ptr %retval, align 1
  br label %return

if.end32:                                         ; preds = %land.lhs.true27, %land.lhs.true24, %if.end20
  store i1 true, ptr %retval, align 1
  br label %return

return:                                           ; preds = %if.end32, %if.then31, %if.then19, %if.then11, %if.then
  %19 = load i1, ptr %retval, align 1
  ret i1 %19
}