; Function Attrs: mustprogress uwtable
define dso_local noundef zeroext i1 @_ZN3url8DomainIsEN4base16BasicStringPieceINSt7__cxx1112basic_stringIcSt11char_traitsIcESaIcEEEEES8_(ptr %canonicalized_host.coerce0, i64 %canonicalized_host.coerce1, ptr %lower_ascii_domain.coerce0, i64 %lower_ascii_domain.coerce1) local_unnamed_addr #0 {
entry:
  %canonicalized_host = alloca %"class.base::BasicStringPiece", align 8
  %lower_ascii_domain = alloca %"class.base::BasicStringPiece", align 8
  %agg.tmp = alloca %"class.base::BasicStringPiece", align 8
  store ptr %canonicalized_host.coerce0, ptr %canonicalized_host, align 8
  %0 = getelementptr inbounds i8, ptr %canonicalized_host, i64 8
  store i64 %canonicalized_host.coerce1, ptr %0, align 8
  store ptr %lower_ascii_domain.coerce0, ptr %lower_ascii_domain, align 8
  %1 = getelementptr inbounds i8, ptr %lower_ascii_domain, i64 8
  store i64 %lower_ascii_domain.coerce1, ptr %1, align 8
  %call = call noundef zeroext i1 @_ZNK4base16BasicStringPieceINSt7__cxx1112basic_stringIcSt11char_traitsIcESaIcEEEE5emptyEv(ptr noundef nonnull align 8 dereferenceable(16) %canonicalized_host)
  br i1 %call, label %return, label %lor.lhs.false

lor.lhs.false:                                    ; preds = %entry
  %call1 = call noundef zeroext i1 @_ZNK4base16BasicStringPieceINSt7__cxx1112basic_stringIcSt11char_traitsIcESaIcEEEE5emptyEv(ptr noundef nonnull align 8 dereferenceable(16) %lower_ascii_domain)
  br i1 %call1, label %return, label %if.end

if.end:                                           ; preds = %lor.lhs.false
  %call2 = call noundef i64 @_ZNK4base16BasicStringPieceINSt7__cxx1112basic_stringIcSt11char_traitsIcESaIcEEEE6lengthEv(ptr noundef nonnull align 8 dereferenceable(16) %canonicalized_host)
  %call3 = call noundef signext i8 @_ZNK4base16BasicStringPieceINSt7__cxx1112basic_stringIcSt11char_traitsIcESaIcEEEE4backEv(ptr noundef nonnull align 8 dereferenceable(16) %canonicalized_host)
  %cmp = icmp eq i8 %call3, 46
  br i1 %cmp, label %land.lhs.true, label %if.end8

land.lhs.true:                                    ; preds = %if.end
  %call4 = call noundef signext i8 @_ZNK4base16BasicStringPieceINSt7__cxx1112basic_stringIcSt11char_traitsIcESaIcEEEE4backEv(ptr noundef nonnull align 8 dereferenceable(16) %lower_ascii_domain)
  %cmp6.not = icmp ne i8 %call4, 46
  %dec = sext i1 %cmp6.not to i64
  %spec.select = add i64 %call2, %dec
  br label %if.end8

if.end8:                                          ; preds = %land.lhs.true, %if.end
  %host_len.0 = phi i64 [ %call2, %if.end ], [ %spec.select, %land.lhs.true ]
  %call9 = call noundef i64 @_ZNK4base16BasicStringPieceINSt7__cxx1112basic_stringIcSt11char_traitsIcESaIcEEEE6lengthEv(ptr noundef nonnull align 8 dereferenceable(16) %lower_ascii_domain)
  %cmp10 = icmp ult i64 %host_len.0, %call9
  br i1 %cmp10, label %return, label %if.end12

if.end12:                                         ; preds = %if.end8
  %call13 = call noundef ptr @_ZNK4base16BasicStringPieceINSt7__cxx1112basic_stringIcSt11char_traitsIcESaIcEEEE4dataEv(ptr noundef nonnull align 8 dereferenceable(16) %canonicalized_host)
  %add.ptr = getelementptr inbounds i8, ptr %call13, i64 %host_len.0
  %call14 = call noundef i64 @_ZNK4base16BasicStringPieceINSt7__cxx1112basic_stringIcSt11char_traitsIcESaIcEEEE6lengthEv(ptr noundef nonnull align 8 dereferenceable(16) %lower_ascii_domain)
  %idx.neg = sub i64 0, %call14
  %add.ptr15 = getelementptr inbounds i8, ptr %add.ptr, i64 %idx.neg
  %call16 = call noundef i64 @_ZNK4base16BasicStringPieceINSt7__cxx1112basic_stringIcSt11char_traitsIcESaIcEEEE6lengthEv(ptr noundef nonnull align 8 dereferenceable(16) %lower_ascii_domain)
  call void @_ZN4base16BasicStringPieceINSt7__cxx1112basic_stringIcSt11char_traitsIcESaIcEEEEC1EPKcm(ptr noundef nonnull align 8 dereferenceable(16) %agg.tmp, ptr noundef %add.ptr15, i64 noundef %call16)
  %agg.tmp17.sroa.0.0.copyload = load ptr, ptr %lower_ascii_domain, align 8
  %agg.tmp17.sroa.2.0.copyload = load i64, ptr %1, align 8
  %2 = load ptr, ptr %agg.tmp, align 8
  %3 = getelementptr inbounds i8, ptr %agg.tmp, i64 8
  %4 = load i64, ptr %3, align 8
  %call18 = call noundef zeroext i1 @_ZN4base20LowerCaseEqualsASCIIENS_16BasicStringPieceINSt7__cxx1112basic_stringIcSt11char_traitsIcESaIcEEEEES7_(ptr %2, i64 %4, ptr %agg.tmp17.sroa.0.0.copyload, i64 %agg.tmp17.sroa.2.0.copyload)
  br i1 %call18, label %if.end20, label %return

if.end20:                                         ; preds = %if.end12
  %call21 = call noundef signext i8 @_ZNK4base16BasicStringPieceINSt7__cxx1112basic_stringIcSt11char_traitsIcESaIcEEEEixEm(ptr noundef nonnull align 8 dereferenceable(16) %lower_ascii_domain, i64 noundef 0)
  %cmp23.not = icmp eq i8 %call21, 46
  br i1 %cmp23.not, label %if.end32, label %land.lhs.true24

land.lhs.true24:                                  ; preds = %if.end20
  %call25 = call noundef i64 @_ZNK4base16BasicStringPieceINSt7__cxx1112basic_stringIcSt11char_traitsIcESaIcEEEE6lengthEv(ptr noundef nonnull align 8 dereferenceable(16) %lower_ascii_domain)
  %cmp26 = icmp ugt i64 %host_len.0, %call25
  br i1 %cmp26, label %land.lhs.true27, label %if.end32

land.lhs.true27:                                  ; preds = %land.lhs.true24
  %add.ptr28 = getelementptr inbounds i8, ptr %add.ptr15, i64 -1
  %5 = load i8, ptr %add.ptr28, align 1
  %cmp30.not = icmp eq i8 %5, 46
  br i1 %cmp30.not, label %if.end32, label %return

if.end32:                                         ; preds = %land.lhs.true27, %land.lhs.true24, %if.end20
  br label %return

return:                                           ; preds = %land.lhs.true27, %if.end12, %if.end8, %entry, %lor.lhs.false, %if.end32
  %retval.0 = phi i1 [ true, %if.end32 ], [ false, %lor.lhs.false ], [ false, %entry ], [ false, %if.end8 ], [ false, %if.end12 ], [ false, %land.lhs.true27 ]
  ret i1 %retval.0
}